target datalayout = "e-m:e-p270:32:32-p271:32:32-p272:64:64-i64:64-i128:128-f80:128-n8:16:32:64-S128"
target triple = "x86_64-pc-linux-gnu"

%struct.Curl_easy = type { i32, i64, ptr, ptr, ptr, %struct.Curl_llist_element, %struct.Curl_llist_element, i32, i32, %struct.Curl_message, %struct.easy_pollset, %struct.Names, ptr, ptr, ptr, %struct.SingleRequest, %struct.UserDefined, ptr, ptr, %struct.Progress, %struct.UrlState, ptr, %struct.PureInfo, %struct.curl_tlssessioninfo }
%struct.Curl_llist_element = type { ptr, ptr, ptr }
%struct.Curl_message = type { %struct.Curl_llist_element, %struct.CURLMsg }
%struct.CURLMsg = type { i32, ptr, %union.anon }
%union.anon = type { ptr }
%struct.easy_pollset = type { [5 x i32], i32, [5 x i8] }
%struct.Names = type { ptr, i32 }
%struct.SingleRequest = type <{ i64, i64, i64, i64, i64, %struct.curltime, i32, i32, i32, i32, i64, i32, i32, %struct.curltime, i32, i32, ptr, i64, i64, ptr, ptr, i64, ptr, %union.anon.0, ptr, [2 x i8], i8, i16, [3 x i8] }>
%struct.curltime = type { i64, i32 }
%union.anon.0 = type { ptr }
%struct.UserDefined = type <{ ptr, ptr, ptr, ptr, ptr, ptr, i16, [6 x i8], i64, i64, i64, ptr, ptr, i64, i16, i16, [4 x i8], ptr, ptr, ptr, ptr, ptr, ptr, ptr, ptr, ptr, ptr, ptr, ptr, ptr, ptr, ptr, ptr, ptr, ptr, ptr, ptr, ptr, ptr, ptr, i32, i32, i32, i32, i64, i64, i64, i64, i64, i64, i64, i64, ptr, ptr, %struct.curl_mimepart, ptr, ptr, i64, i8, i8, i8, [5 x i8], %struct.ssl_config_data, %struct.ssl_config_data, ptr, i16, i8, i8, [4 x i8], %struct.ssl_general_config, i32, i32, i32, [4 x i8], ptr, ptr, i8, [7 x i8], i64, i8, i8, i8, i8, i32, ptr, ptr, ptr, i8, i8, [2 x i8], i32, [80 x ptr], [8 x ptr], i32, i32, i32, [4 x i8], ptr, ptr, ptr, ptr, ptr, i8, [3 x i8], i32, i32, [4 x i8], i64, %struct.Curl_data_priority, ptr, ptr, i64, ptr, ptr, ptr, ptr, ptr, i8, [3 x i8], i32, i8, i8, i56, [6 x i8] }>
%struct.curl_mimepart = type { ptr, ptr, i32, i32, ptr, ptr, ptr, ptr, ptr, ptr, ptr, ptr, ptr, ptr, ptr, i64, %struct.mime_state, ptr, %struct.mime_encoder_state, i64 }
%struct.mime_state = type { i32, ptr, i64 }
%struct.mime_encoder_state = type { i64, i64, i64, [256 x i8] }
%struct.ssl_config_data = type { %struct.ssl_primary_config, i64, ptr, ptr, ptr, ptr, ptr, ptr, ptr, i8 }
%struct.ssl_primary_config = type { ptr, ptr, ptr, ptr, ptr, ptr, ptr, ptr, ptr, ptr, ptr, ptr, i8, i32, i8, i8 }
%struct.ssl_general_config = type { i64, i32 }
%struct.Curl_data_priority = type { ptr, ptr, i32, i8 }
%struct.Progress = type { i64, i64, i64, i64, i64, i64, i32, i32, i64, i64, i64, i64, i64, i64, i64, i64, i64, i64, %struct.curltime, %struct.curltime, %struct.curltime, %struct.curltime, %struct.curltime, i64, %struct.curltime, i64, [6 x i64], [6 x %struct.curltime], i32, i8 }
%struct.UrlState = type { ptr, %struct.curltime, i64, i64, %struct.dynbuf, ptr, ptr, ptr, i64, ptr, i32, i32, i32, ptr, i64, [3 x %struct.tempbuf], i32, i32, ptr, i64, i32, ptr, %struct.digestdata, %struct.digestdata, %struct.auth, %struct.auth, %struct.Curl_async, ptr, %struct.curltime, %struct.Curl_tree, %struct.Curl_llist, [15 x %struct.time_node], ptr, i8, i64, ptr, i64, i64, %struct.Curl_data_priority, ptr, ptr, ptr, %struct.urlpieces, ptr, ptr, ptr, ptr, ptr, i64, %struct.dynbuf, %struct.Curl_llist, [2 x %struct.curl_header], ptr, i32, ptr, %struct.dynamically_allocated_data, i8, i8, i8, i8, i24 }
%struct.tempbuf = type { %struct.dynbuf, i32, i8 }
%struct.digestdata = type { ptr, ptr, ptr, ptr, ptr, ptr, i32, i8, i8 }
%struct.auth = type { i64, i64, i64, i8 }
%struct.Curl_async = type { ptr, ptr, ptr, ptr, i32, i32, i8 }
%struct.Curl_tree = type { ptr, ptr, ptr, ptr, %struct.curltime, ptr }
%struct.time_node = type { %struct.Curl_llist_element, %struct.curltime, i32 }
%struct.urlpieces = type { ptr, ptr, ptr, ptr, ptr, ptr, ptr, ptr }
%struct.dynbuf = type { ptr, i64, i64, i64 }
%struct.Curl_llist = type { ptr, ptr, ptr, i64 }
%struct.curl_header = type { ptr, ptr, i64, i64, i32, ptr }
%struct.dynamically_allocated_data = type { ptr, ptr, ptr, ptr, ptr, ptr, ptr, ptr, ptr, ptr, ptr, ptr, ptr, ptr }
%struct.PureInfo = type { i32, i32, i32, i64, i64, i64, i64, i64, ptr, ptr, i64, i32, [46 x i8], i32, i32, [46 x i8], i32, ptr, i32, %struct.curl_certinfo, i32, i8 }
%struct.curl_certinfo = type { i32, ptr }
%struct.curl_tlssessioninfo = type { i32, ptr }
%struct.connectdata = type { %struct.Curl_llist_element, ptr, ptr, i64, ptr, ptr, %struct.hostname, ptr, ptr, %struct.hostname, %struct.proxy_info, %struct.proxy_info, [46 x i8], ptr, ptr, ptr, ptr, ptr, %struct.curltime, %struct.curltime, %struct.curltime, [2 x i32], [2 x ptr], [2 x ptr], [2 x ptr], %struct.ssl_primary_config, %struct.ssl_primary_config, %struct.ConnectBits, ptr, ptr, %struct.curltime, i32, i32, %struct.Curl_llist, ptr, ptr, i32, i32, %struct.ntlmdata, %struct.ntlmdata, %union.anon.1, ptr, ptr, i16, i32, i32, i32, i32, i32, i16, i16, i8, i8, i8, i8, i8, i8, i8 }
%struct.hostname = type { ptr, ptr, ptr, ptr }
%struct.proxy_info = type { %struct.hostname, i32, i8, ptr, ptr }
%struct.ConnectBits = type { i32 }
%struct.ntlmdata = type { i32, [8 x i8], i32, ptr }
%union.anon.1 = type { %struct.ftp_conn }
%struct.ftp_conn = type { %struct.pingpong, ptr, ptr, ptr, ptr, ptr, ptr, ptr, i8, i64, ptr, i64, i32, i32, i32, i32, i32, i16, i8, i8, i8, i8, i8 }
%struct.pingpong = type { i64, i8, ptr, i64, i64, %struct.curltime, i64, %struct.dynbuf, %struct.dynbuf, i64, i64, ptr, ptr }
%struct.smb_conn = type { i32, ptr, ptr, ptr, [8 x i8], i32, i16, ptr, i64, i64, i64, i64 }
%struct.smb_header = type <{ i8, i8, i16, [4 x i8], i8, i32, i8, i16, i16, [8 x i8], i16, i16, i16, i16, i16 }>
%struct.smb_request = type { i32, ptr, i16, i16, i32 }

@.str.4 = private unnamed_addr constant [5 x i8] c"\FFSMB\00", align 1

; Function Attrs: nounwind uwtable
define internal i32 @smb_send(ptr noundef %0, i64 noundef %1, i64 noundef %2) #0 {
  %4 = alloca i32, align 4
  %5 = alloca ptr, align 8
  %6 = alloca i64, align 8
  %7 = alloca i64, align 8
  %8 = alloca ptr, align 8
  %9 = alloca ptr, align 8
  %10 = alloca i64, align 8
  %11 = alloca i32, align 4
  store ptr %0, ptr %5, align 8
  store i64 %1, ptr %6, align 8
  store i64 %2, ptr %7, align 8
  %12 = load ptr, ptr %5, align 8
  %13 = getelementptr inbounds %struct.Curl_easy, ptr %12, i32 0, i32 4
  %14 = load ptr, ptr %13, align 8
  store ptr %14, ptr %8, align 8
  %15 = load ptr, ptr %8, align 8
  %16 = getelementptr inbounds %struct.connectdata, ptr %15, i32 0, i32 40
  store ptr %16, ptr %9, align 8
  %17 = load ptr, ptr %5, align 8
  %18 = load ptr, ptr %5, align 8
  %19 = getelementptr inbounds %struct.Curl_easy, ptr %18, i32 0, i32 20
  %20 = getelementptr inbounds %struct.UrlState, ptr %19, i32 0, i32 7
  %21 = load ptr, ptr %20, align 8
  %22 = load i64, ptr %6, align 8
  %23 = call i32 @Curl_nwrite(ptr noundef %17, i32 noundef 0, ptr noundef %21, i64 noundef %22, ptr noundef %10)
  store i32 %23, ptr %11, align 4
  %24 = load i32, ptr %11, align 4
  %25 = icmp ne i32 %24, 0
  br i1 %25, label %26, label %28

26:                                               ; preds = %3
  %27 = load i32, ptr %11, align 4
  store i32 %27, ptr %4, align 4
  br label %43

28:                                               ; preds = %3
  %29 = load i64, ptr %10, align 8
  %30 = load i64, ptr %6, align 8
  %31 = icmp ne i64 %29, %30
  br i1 %31, label %32, label %39

32:                                               ; preds = %28
  %33 = load i64, ptr %6, align 8
  %34 = load ptr, ptr %9, align 8
  %35 = getelementptr inbounds %struct.smb_conn, ptr %34, i32 0, i32 9
  store i64 %33, ptr %35, align 8
  %36 = load i64, ptr %10, align 8
  %37 = load ptr, ptr %9, align 8
  %38 = getelementptr inbounds %struct.smb_conn, ptr %37, i32 0, i32 10
  store i64 %36, ptr %38, align 8
  br label %39

39:                                               ; preds = %32, %28
  %40 = load i64, ptr %7, align 8
  %41 = load ptr, ptr %9, align 8
  %42 = getelementptr inbounds %struct.smb_conn, ptr %41, i32 0, i32 8
  store i64 %40, ptr %42, align 8
  store i32 0, ptr %4, align 4
  br label %43

43:                                               ; preds = %39, %26
  %44 = load i32, ptr %4, align 4
  ret i32 %44
}

; Function Attrs: nounwind uwtable
define internal void @smb_format_message(ptr noundef %0, ptr noundef %1, i8 noundef zeroext %2, i64 noundef %3) #0 {
  %5 = alloca ptr, align 8
  %6 = alloca ptr, align 8
  %7 = alloca i8, align 1
  %8 = alloca i64, align 8
  %9 = alloca ptr, align 8
  %10 = alloca ptr, align 8
  %11 = alloca ptr, align 8
  %12 = alloca i32, align 4
  store ptr %0, ptr %5, align 8
  store ptr %1, ptr %6, align 8
  store i8 %2, ptr %7, align 1
  store i64 %3, ptr %8, align 8
  %13 = load ptr, ptr %5, align 8
  %14 = getelementptr inbounds %struct.Curl_easy, ptr %13, i32 0, i32 4
  %15 = load ptr, ptr %14, align 8
  store ptr %15, ptr %9, align 8
  %16 = load ptr, ptr %9, align 8
  %17 = getelementptr inbounds %struct.connectdata, ptr %16, i32 0, i32 40
  store ptr %17, ptr %10, align 8
  %18 = load ptr, ptr %5, align 8
  %19 = getelementptr inbounds %struct.Curl_easy, ptr %18, i32 0, i32 15
  %20 = getelementptr inbounds %struct.SingleRequest, ptr %19, i32 0, i32 23
  %21 = load ptr, ptr %20, align 8
  store ptr %21, ptr %11, align 8
  %22 = load ptr, ptr %6, align 8
  call void @llvm.memset.p0.i64(ptr align 1 %22, i8 0, i64 36, i1 false)
  %23 = load i64, ptr %8, align 8
  %24 = add i64 32, %23
  %25 = trunc i64 %24 to i16
  %26 = call zeroext i16 @htons(i16 noundef zeroext %25) #9
  %27 = load ptr, ptr %6, align 8
  %28 = getelementptr inbounds %struct.smb_header, ptr %27, i32 0, i32 2
  store i16 %26, ptr %28, align 1
  %29 = load ptr, ptr %6, align 8
  %30 = getelementptr inbounds %struct.smb_header, ptr %29, i32 0, i32 3
  %31 = getelementptr inbounds [4 x i8], ptr %30, i64 0, i64 0
  call void @llvm.memcpy.p0.p0.i64(ptr align 1 %31, ptr align 1 @.str.4, i64 4, i1 false)
  %32 = load i8, ptr %7, align 1
  %33 = load ptr, ptr %6, align 8
  %34 = getelementptr inbounds %struct.smb_header, ptr %33, i32 0, i32 4
  store i8 %32, ptr %34, align 1
  %35 = load ptr, ptr %6, align 8
  %36 = getelementptr inbounds %struct.smb_header, ptr %35, i32 0, i32 6
  store i8 24, ptr %36, align 1
  %37 = load ptr, ptr %6, align 8
  %38 = getelementptr inbounds %struct.smb_header, ptr %37, i32 0, i32 7
  store i16 65, ptr %38, align 1
  %39 = load ptr, ptr %10, align 8
  %40 = getelementptr inbounds %struct.smb_conn, ptr %39, i32 0, i32 6
  %41 = load i16, ptr %40, align 4
  %42 = load ptr, ptr %6, align 8
  %43 = getelementptr inbounds %struct.smb_header, ptr %42, i32 0, i32 13
  store i16 %41, ptr %43, align 1
  %44 = load ptr, ptr %11, align 8
  %45 = getelementptr inbounds %struct.smb_request, ptr %44, i32 0, i32 2
  %46 = load i16, ptr %45, align 8
  %47 = load ptr, ptr %6, align 8
  %48 = getelementptr inbounds %struct.smb_header, ptr %47, i32 0, i32 11
  store i16 %46, ptr %48, align 1
  %49 = call i32 @getpid() #8
  store i32 %49, ptr %12, align 4
  %50 = load i32, ptr %12, align 4
  %51 = lshr i32 %50, 16
  %52 = trunc i32 %51 to i16
  %53 = load ptr, ptr %6, align 8
  %54 = getelementptr inbounds %struct.smb_header, ptr %53, i32 0, i32 8
  store i16 %52, ptr %54, align 1
  %55 = load i32, ptr %12, align 4
  %56 = trunc i32 %55 to i16
  %57 = load ptr, ptr %6, align 8
  %58 = getelementptr inbounds %struct.smb_header, ptr %57, i32 0, i32 12
  store i16 %56, ptr %58, align 1
  ret void
}

; Function Attrs: nounwind uwtable
define internal i32 @smb_send_message(ptr noundef %0, i8 noundef zeroext %1, ptr noundef %2, i64 noundef %3) #0 {
  %5 = alloca i32, align 4
  %6 = alloca ptr, align 8
  %7 = alloca i8, align 1
  %8 = alloca ptr, align 8
  %9 = alloca i64, align 8
  %10 = alloca i32, align 4
  store ptr %0, ptr %6, align 8
  store i8 %1, ptr %7, align 1
  store ptr %2, ptr %8, align 8
  store i64 %3, ptr %9, align 8
  %11 = load ptr, ptr %6, align 8
  %12 = call i32 @Curl_get_upload_buffer(ptr noundef %11)
  store i32 %12, ptr %10, align 4
  %13 = load i32, ptr %10, align 4
  %14 = icmp ne i32 %13, 0
  br i1 %14, label %15, label %17

15:                                               ; preds = %4
  %16 = load i32, ptr %10, align 4
  store i32 %16, ptr %5, align 4
  br label %36

17:                                               ; preds = %4
  %18 = load ptr, ptr %6, align 8
  %19 = load ptr, ptr %6, align 8
  %20 = getelementptr inbounds %struct.Curl_easy, ptr %19, i32 0, i32 20
  %21 = getelementptr inbounds %struct.UrlState, ptr %20, i32 0, i32 7
  %22 = load ptr, ptr %21, align 8
  %23 = load i8, ptr %7, align 1
  %24 = load i64, ptr %9, align 8
  call void @smb_format_message(ptr noundef %18, ptr noundef %22, i8 noundef zeroext %23, i64 noundef %24)
  %25 = load ptr, ptr %6, align 8
  %26 = getelementptr inbounds %struct.Curl_easy, ptr %25, i32 0, i32 20
  %27 = getelementptr inbounds %struct.UrlState, ptr %26, i32 0, i32 7
  %28 = load ptr, ptr %27, align 8
  %29 = getelementptr inbounds i8, ptr %28, i64 36
  %30 = load ptr, ptr %8, align 8
  %31 = load i64, ptr %9, align 8
  call void @llvm.memcpy.p0.p0.i64(ptr align 1 %29, ptr align 1 %30, i64 %31, i1 false)
  %32 = load ptr, ptr %6, align 8
  %33 = load i64, ptr %9, align 8
  %34 = add i64 36, %33
  %35 = call i32 @smb_send(ptr noundef %32, i64 noundef %34, i64 noundef 0)
  store i32 %35, ptr %5, align 4
  br label %36

36:                                               ; preds = %17, %15
  %37 = load i32, ptr %5, align 4
  ret i32 %37
}