; Function Attrs: nounwind uwtable
define internal fastcc i32 @smb_send_message(ptr noundef %0, i8 noundef zeroext range(i8 4, -93) %1, ptr noundef readonly captures(none) %2, i64 noundef %3) unnamed_addr #0 {
  %5 = alloca i64, align 8
  %6 = tail call i32 @Curl_get_upload_buffer(ptr noundef %0) #12
  %.not = icmp eq i32 %6, 0
  br i1 %.not, label %7, label %45

7:                                                ; preds = %4
  %8 = getelementptr inbounds nuw i8, ptr %0, i64 3160
  %9 = load ptr, ptr %8, align 8
  %10 = getelementptr i8, ptr %0, i64 32
  %.val = load ptr, ptr %10, align 8
  %11 = getelementptr i8, ptr %0, i64 384
  %.val13 = load ptr, ptr %11, align 8
  tail call void @llvm.memset.p0.i64(ptr noundef nonnull align 1 dereferenceable(36) %9, i8 0, i64 36, i1 false)
  %12 = trunc i64 %3 to i16
  %13 = add i16 %12, 32
  %14 = tail call zeroext i16 @htons(i16 noundef zeroext %13) #14
  %15 = getelementptr inbounds nuw i8, ptr %9, i64 2
  store i16 %14, ptr %15, align 1
  %16 = getelementptr inbounds nuw i8, ptr %9, i64 4
  store i32 1112364031, ptr %16, align 1
  %17 = getelementptr inbounds nuw i8, ptr %9, i64 8
  store i8 %1, ptr %17, align 1
  %18 = getelementptr inbounds nuw i8, ptr %9, i64 13
  store i8 24, ptr %18, align 1
  %19 = getelementptr inbounds nuw i8, ptr %9, i64 14
  store i16 65, ptr %19, align 1
  %20 = getelementptr inbounds nuw i8, ptr %.val, i64 868
  %21 = load i16, ptr %20, align 4
  %22 = getelementptr inbounds nuw i8, ptr %9, i64 32
  store i16 %21, ptr %22, align 1
  %23 = getelementptr inbounds nuw i8, ptr %.val13, i64 16
  %24 = load i16, ptr %23, align 8
  %25 = getelementptr inbounds nuw i8, ptr %9, i64 28
  store i16 %24, ptr %25, align 1
  %26 = tail call i32 @getpid() #12
  %27 = lshr i32 %26, 16
  %28 = trunc nuw i32 %27 to i16
  %29 = getelementptr inbounds nuw i8, ptr %9, i64 16
  store i16 %28, ptr %29, align 1
  %30 = trunc i32 %26 to i16
  %31 = getelementptr inbounds nuw i8, ptr %9, i64 30
  store i16 %30, ptr %31, align 1
  %32 = load ptr, ptr %8, align 8
  %33 = getelementptr inbounds nuw i8, ptr %32, i64 36
  tail call void @llvm.memcpy.p0.p0.i64(ptr nonnull align 1 %33, ptr align 1 %2, i64 %3, i1 false)
  %34 = add i64 %3, 36
  call void @llvm.lifetime.start.p0(i64 8, ptr nonnull %5)
  %35 = load ptr, ptr %10, align 8
  %36 = load ptr, ptr %8, align 8
  %37 = call i32 @Curl_nwrite(ptr noundef %0, i32 noundef 0, ptr noundef %36, i64 noundef %34, ptr noundef nonnull %5) #12
  %.not.i = icmp eq i32 %37, 0
  br i1 %.not.i, label %38, label %smb_send.exit

38:                                               ; preds = %7
  %39 = load i64, ptr %5, align 8
  %.not15.i = icmp eq i64 %39, %34
  br i1 %.not15.i, label %43, label %40

40:                                               ; preds = %38
  %41 = getelementptr inbounds nuw i8, ptr %35, i64 888
  store i64 %34, ptr %41, align 8
  %42 = getelementptr inbounds nuw i8, ptr %35, i64 896
  store i64 %39, ptr %42, align 8
  br label %43

43:                                               ; preds = %40, %38
  %44 = getelementptr inbounds nuw i8, ptr %35, i64 880
  store i64 0, ptr %44, align 8
  br label %smb_send.exit

smb_send.exit:                                    ; preds = %7, %43
  call void @llvm.lifetime.end.p0(i64 8, ptr nonnull %5)
  br label %45

45:                                               ; preds = %4, %smb_send.exit
  %.0 = phi i32 [ %37, %smb_send.exit ], [ %6, %4 ]
  ret i32 %.0
}